; Function Attrs: mustprogress uwtable
define internal fastcc noundef nonnull align 8 dereferenceable(64) ptr @_ZN2cvlsIiEERNS_11FileStorageES2_RKT_(ptr noundef nonnull returned align 8 dereferenceable(64) %0, ptr nocapture noundef nonnull readonly align 4 dereferenceable(4) %1) unnamed_addr #0 personality ptr @__gxx_personality_v0 {
  %3 = alloca %"class.std::__cxx11::basic_string", align 8
  %4 = alloca %"class.std::allocator.5", align 1
  %5 = load ptr, ptr %0, align 8
  %6 = getelementptr inbounds i8, ptr %5, i64 24
  %7 = load ptr, ptr %6, align 8
  %8 = tail call noundef zeroext i1 %7(ptr noundef nonnull align 8 dereferenceable(64) %0)
  br i1 %8, label %9, label %27

9:                                                ; preds = %2
  %10 = getelementptr inbounds i8, ptr %0, i64 8
  %11 = load i32, ptr %10, align 8
  %12 = icmp eq i32 %11, 6
  br i1 %12, label %13, label %21

13:                                               ; preds = %9
  call void @_ZNSaIcEC1Ev(ptr noundef nonnull align 1 dereferenceable(1) %4) #22
  invoke void @_ZNSt7__cxx1112basic_stringIcSt11char_traitsIcESaIcEEC1EPKcRKS3_(ptr noundef nonnull align 8 dereferenceable(32) %3, ptr noundef nonnull @.str.19, ptr noundef nonnull align 1 dereferenceable(1) %4)
          to label %14 unwind label %16

14:                                               ; preds = %13
  invoke void @_ZN2cv5errorEiRKNSt7__cxx1112basic_stringIcSt11char_traitsIcESaIcEEEPKcS9_i(i32 noundef -2, ptr noundef nonnull align 8 dereferenceable(32) %3, ptr noundef nonnull @__func__._ZN2cvlsIiEERNS_11FileStorageES2_RKT_, ptr noundef nonnull @.str.20, i32 noundef 1201) #25
          to label %15 unwind label %18

15:                                               ; preds = %14
  unreachable

16:                                               ; preds = %13
  %17 = landingpad { ptr, i32 }
          cleanup
  br label %20

18:                                               ; preds = %14
  %19 = landingpad { ptr, i32 }
          cleanup
  call void @_ZNSt7__cxx1112basic_stringIcSt11char_traitsIcESaIcEED1Ev(ptr noundef nonnull align 8 dereferenceable(32) %3) #22
  br label %20

20:                                               ; preds = %18, %16
  %.pn = phi { ptr, i32 } [ %19, %18 ], [ %17, %16 ]
  call void @_ZNSaIcED1Ev(ptr noundef nonnull align 1 dereferenceable(1) %4) #22
  resume { ptr, i32 } %.pn

21:                                               ; preds = %9
  %22 = getelementptr inbounds i8, ptr %0, i64 16
  %23 = load i32, ptr %1, align 4
  tail call void @_ZN2cv5writeERNS_11FileStorageERKNSt7__cxx1112basic_stringIcSt11char_traitsIcESaIcEEEi(ptr noundef nonnull align 8 dereferenceable(64) %0, ptr noundef nonnull align 8 dereferenceable(32) %22, i32 noundef %23)
  %24 = load i32, ptr %10, align 8
  %25 = and i32 %24, 4
  %.not = icmp eq i32 %25, 0
  br i1 %.not, label %27, label %26

26:                                               ; preds = %21
  store i32 6, ptr %10, align 8
  br label %27

27:                                               ; preds = %21, %26, %2
  ret ptr %0
}